(dp0
S'avgs'
p1
(dp2
S'CU'
p3
(dp4
S'start_speed'
p5
F73.47226277372262
sS'break_angle'
p6
F4.615845498783444
sS'pfx_z'
p7
F-8.663866484184902
sS'pfx_x'
p8
F-2.7093652676399023
sS'break_length'
p9
F14.827493917274916
sS'total'
p10
I3288
sS'break_y'
p11
F23.795529197081
ssS'FF'
p12
(dp13
g5
F93.24523055917533
sg6
F-8.888164835846847
sg7
F11.44894811642776
sg8
F1.5074389002668789
sg9
F2.7320424501954967
sg10
I16113
sg11
F23.759771612982238
ssS'SL'
p14
(dp15
g5
F85.14828098866397
sg6
F11.168797621259971
sg7
F2.559471102025643
sg8
F-3.2183558818063553
sg9
F7.606597286749654
sg10
I5381
sg11
F23.82209626463544
sssS'sequence'
p16
(dp17
S'FF BM'
p18
(dp19
VFF BM
p20
I111
sVFF BL
p21
I215
sVCU TR
p22
I23
sVCU TM
p23
I30
sVCU TL
p24
I35
sVFF BR
p25
I138
sVSL BR
p26
I24
sVSL BL
p27
I29
sVSL BM
p28
I15
sVFF ML
p29
I112
sVFF MM
p30
I59
sVSL MR
p31
I13
sVFF TM
p32
I50
sVFF TL
p33
I111
sVCU BR
p34
I34
sVCU BM
p35
I22
sVCU BL
p36
I18
sVFF TR
p37
I27
sVSL MM
p38
I21
sVSL ML
p39
I28
sVFF MR
p40
I40
sVCU MR
p41
I10
sVSL TR
p42
I18
sVSL TL
p43
I95
sVSL TM
p44
I31
sVCU ML
p45
I10
sVCU MM
p46
I11
ssS'FF BL'
p47
(dp48
VFF BM
p49
I146
sVFF BL
p50
I356
sVCU TR
p51
I32
sVCU TM
p52
I56
sVCU TL
p53
I90
sVFF BR
p54
I132
sVSL BR
p55
I33
sVSL BL
p56
I59
sVSL BM
p57
I35
sVFF ML
p58
I199
sVFF MM
p59
I67
sVSL MR
p60
I13
sVFF TM
p61
I61
sVFF TL
p62
I199
sVCU BR
p63
I71
sVCU BM
p64
I35
sVCU BL
p65
I29
sVFF TR
p66
I49
sVSL MM
p67
I16
sVSL ML
p68
I52
sVFF MR
p69
I63
sVCU MR
p70
I26
sVSL TR
p71
I24
sVSL TL
p72
I190
sVSL TM
p73
I43
sVCU ML
p74
I22
sVCU MM
p75
I24
ssS'CU TR'
p76
(dp77
VFF BM
p78
I18
sVFF BL
p79
I44
sVCU TR
p80
I13
sVCU TM
p81
I6
sVCU TL
p82
I8
sVFF BR
p83
I22
sVSL BR
p84
I10
sVSL BL
p85
I3
sVSL BM
p86
I3
sVFF ML
p87
I20
sVFF MM
p88
I8
sVSL MR
p89
I4
sVFF TM
p90
I11
sVFF TL
p91
I21
sVCU BR
p92
I10
sVCU BM
p93
I1
sVFF TR
p94
I12
sVSL MM
p95
I7
sVSL ML
p96
I10
sVFF MR
p97
I14
sVCU MR
p98
I2
sVSL TR
p99
I7
sVSL TL
p100
I25
sVSL TM
p101
I11
sVCU ML
p102
I2
sVCU MM
p103
I1
ssS'CU TM'
p104
(dp105
VFF BM
p106
I12
sVFF BL
p107
I30
sVCU TR
p108
I5
sVCU TM
p109
I4
sVCU TL
p110
I14
sVFF BR
p111
I29
sVSL BR
p112
I6
sVSL BL
p113
I8
sVSL BM
p114
I3
sVFF ML
p115
I28
sVFF MM
p116
I9
sVSL MR
p117
I7
sVFF TM
p118
I16
sVFF TL
p119
I27
sVCU BR
p120
I8
sVCU BM
p121
I2
sVFF TR
p122
I20
sVSL MM
p123
I7
sVSL ML
p124
I10
sVFF MR
p125
I17
sVCU MR
p126
I4
sVSL TR
p127
I10
sVSL TL
p128
I46
sVSL TM
p129
I21
sVCU ML
p130
I3
sVCU MM
p131
I1
ssS'CU TL'
p132
(dp133
VFF BM
p134
I39
sVFF BL
p135
I76
sVCU TR
p136
I13
sVCU TM
p137
I13
sVCU TL
p138
I28
sVFF BR
p139
I44
sVSL BR
p140
I10
sVSL BL
p141
I11
sVSL BM
p142
I14
sVFF ML
p143
I52
sVFF MM
p144
I23
sVSL MR
p145
I13
sVFF TM
p146
I35
sVFF TL
p147
I61
sVCU BR
p148
I9
sVCU BM
p149
I9
sVCU BL
p150
I2
sVFF TR
p151
I24
sVSL MM
p152
I10
sVSL ML
p153
I17
sVFF MR
p154
I28
sVCU MR
p155
I2
sVSL TR
p156
I12
sVSL TL
p157
I50
sVSL TM
p158
I16
sVCU ML
p159
I3
sVCU MM
p160
I4
ssS'FF BR'
p161
(dp162
VFF BM
p163
I172
sVFF BL
p164
I192
sVCU TR
p165
I33
sVCU TM
p166
I24
sVCU TL
p167
I61
sVFF BR
p168
I237
sVSL BR
p169
I23
sVSL BL
p170
I35
sVSL BM
p171
I37
sVFF ML
p172
I136
sVFF MM
p173
I100
sVSL MR
p174
I20
sVFF TM
p175
I70
sVFF TL
p176
I121
sVCU BR
p177
I43
sVCU BM
p178
I14
sVCU BL
p179
I9
sVFF TR
p180
I76
sVSL MM
p181
I21
sVSL ML
p182
I33
sVFF MR
p183
I115
sVCU MR
p184
I21
sVSL TR
p185
I23
sVSL TL
p186
I93
sVSL TM
p187
I28
sVCU ML
p188
I14
sVCU MM
p189
I14
ssS'SL BR'
p190
(dp191
VFF BM
p192
I25
sVFF BL
p193
I28
sVCU TR
p194
I11
sVCU TM
p195
I6
sVCU TL
p196
I12
sVFF BR
p197
I33
sVSL BR
p198
I18
sVSL BL
p199
I7
sVSL BM
p200
I7
sVFF ML
p201
I15
sVFF MM
p202
I14
sVSL MR
p203
I6
sVFF TM
p204
I8
sVFF TL
p205
I18
sVCU BR
p206
I5
sVCU BM
p207
I1
sVFF TR
p208
I15
sVSL MM
p209
I10
sVSL ML
p210
I7
sVFF MR
p211
I22
sVCU MR
p212
I1
sVSL TR
p213
I9
sVSL TL
p214
I16
sVSL TM
p215
I6
sVCU ML
p216
I3
sVCU MM
p217
I1
ssS'SL BL'
p218
(dp219
VFF BM
p220
I26
sVFF BL
p221
I40
sVCU TR
p222
I10
sVCU TM
p223
I11
sVCU TL
p224
I17
sVFF BR
p225
I37
sVSL BR
p226
I7
sVSL BL
p227
I28
sVSL BM
p228
I11
sVFF ML
p229
I25
sVFF MM
p230
I14
sVSL MR
p231
I2
sVFF TM
p232
I15
sVFF TL
p233
I25
sVCU BR
p234
I10
sVCU BM
p235
I4
sVCU BL
p236
I3
sVFF TR
p237
I13
sVSL MM
p238
I6
sVSL ML
p239
I13
sVFF MR
p240
I18
sVCU MR
p241
I6
sVSL TR
p242
I6
sVSL TL
p243
I46
sVSL TM
p244
I10
sVCU ML
p245
I1
ssS'SL BM'
p246
(dp247
VFF BM
p248
I11
sVFF BL
p249
I21
sVCU TR
p250
I2
sVCU TM
p251
I3
sVCU TL
p252
I8
sVFF BR
p253
I29
sVSL BR
p254
I8
sVSL BL
p255
I7
sVSL BM
p256
I13
sVFF ML
p257
I19
sVFF MM
p258
I16
sVSL MR
p259
I3
sVFF TM
p260
I7
sVFF TL
p261
I23
sVCU BR
p262
I6
sVCU BM
p263
I3
sVCU BL
p264
I2
sVFF TR
p265
I10
sVSL MM
p266
I8
sVSL ML
p267
I6
sVFF MR
p268
I12
sVCU MR
p269
I3
sVSL TR
p270
I10
sVSL TL
p271
I33
sVSL TM
p272
I18
sVCU ML
p273
I5
sVCU MM
p274
I3
ssS'FF ML'
p275
(dp276
VFF BM
p277
I89
sVFF BL
p278
I195
sVCU TR
p279
I35
sVCU TM
p280
I53
sVCU TL
p281
I69
sVFF BR
p282
I107
sVSL BR
p283
I18
sVSL BL
p284
I38
sVSL BM
p285
I21
sVFF ML
p286
I144
sVFF MM
p287
I50
sVSL MR
p288
I9
sVFF TM
p289
I47
sVFF TL
p290
I138
sVCU BR
p291
I45
sVCU BM
p292
I35
sVCU BL
p293
I14
sVFF TR
p294
I45
sVSL MM
p295
I20
sVSL ML
p296
I45
sVFF MR
p297
I47
sVCU MR
p298
I17
sVSL TR
p299
I19
sVSL TL
p300
I136
sVSL TM
p301
I44
sVCU ML
p302
I22
sVCU MM
p303
I18
ssS'FF MM'
p304
(dp305
VFF BM
p306
I47
sVFF BL
p307
I84
sVCU TR
p308
I12
sVCU TM
p309
I20
sVCU TL
p310
I42
sVFF BR
p311
I35
sVSL BR
p312
I12
sVSL BL
p313
I12
sVSL BM
p314
I11
sVFF ML
p315
I56
sVFF MM
p316
I31
sVSL MR
p317
I5
sVFF TM
p318
I18
sVFF TL
p319
I57
sVCU BR
p320
I20
sVCU BM
p321
I15
sVCU BL
p322
I7
sVFF TR
p323
I18
sVSL MM
p324
I10
sVSL ML
p325
I15
sVFF MR
p326
I22
sVCU MR
p327
I5
sVSL TR
p328
I8
sVSL TL
p329
I51
sVSL TM
p330
I29
sVCU ML
p331
I6
sVCU MM
p332
I5
ssS'SL MR'
p333
(dp334
VFF BM
p335
I6
sVFF BL
p336
I9
sVCU TR
p337
I10
sVCU TM
p338
I6
sVCU TL
p339
I7
sVFF BR
p340
I12
sVSL BR
p341
I6
sVSL BL
p342
I2
sVSL BM
p343
I4
sVFF ML
p344
I12
sVSL MR
p345
I1
sVFF TM
p346
I6
sVFF TL
p347
I7
sVCU BR
p348
I2
sVCU BM
p349
I4
sVCU BL
p350
I2
sVFF TR
p351
I2
sVSL MM
p352
I5
sVSL ML
p353
I4
sVFF MR
p354
I9
sVCU MR
p355
I5
sVSL TR
p356
I4
sVSL TL
p357
I15
sVSL TM
p358
I8
sVCU ML
p359
I1
ssS'FF TM'
p360
(dp361
VFF BM
p362
I38
sVFF BL
p363
I43
sVCU TR
p364
I10
sVCU TM
p365
I8
sVCU TL
p366
I25
sVFF BR
p367
I64
sVSL BR
p368
I8
sVSL BL
p369
I9
sVSL BM
p370
I7
sVFF ML
p371
I61
sVFF MM
p372
I36
sVSL MR
p373
I2
sVFF TM
p374
I35
sVFF TL
p375
I114
sVCU BR
p376
I14
sVCU BM
p377
I3
sVCU BL
p378
I4
sVFF TR
p379
I44
sVSL MM
p380
I4
sVSL ML
p381
I15
sVFF MR
p382
I36
sVCU MR
p383
I11
sVSL TR
p384
I14
sVSL TL
p385
I56
sVSL TM
p386
I18
sVCU ML
p387
I2
sVCU MM
p388
I3
ssS'FF TL'
p389
(dp390
VFF BM
p391
I118
sVFF BL
p392
I213
sVCU TR
p393
I34
sVCU TM
p394
I38
sVCU TL
p395
I75
sVFF BR
p396
I111
sVSL BR
p397
I20
sVSL BL
p398
I40
sVSL BM
p399
I23
sVFF ML
p400
I206
sVFF MM
p401
I84
sVSL MR
p402
I9
sVFF TM
p403
I97
sVFF TL
p404
I276
sVCU BR
p405
I23
sVCU BM
p406
I21
sVCU BL
p407
I9
sVFF TR
p408
I66
sVSL MM
p409
I24
sVSL ML
p410
I45
sVFF MR
p411
I70
sVCU MR
p412
I10
sVSL TR
p413
I26
sVSL TL
p414
I177
sVSL TM
p415
I44
sVCU ML
p416
I17
sVCU MM
p417
I11
ssS'CU BR'
p418
(dp419
VFF BM
p420
I30
sVFF BL
p421
I40
sVCU TR
p422
I8
sVCU TM
p423
I9
sVCU TL
p424
I4
sVFF BR
p425
I40
sVSL BR
p426
I11
sVSL BL
p427
I8
sVSL BM
p428
I4
sVFF ML
p429
I29
sVFF MM
p430
I12
sVSL MR
p431
I3
sVFF TM
p432
I15
sVFF TL
p433
I36
sVCU BR
p434
I6
sVCU BM
p435
I7
sVFF TR
p436
I25
sVSL MM
p437
I6
sVSL ML
p438
I4
sVFF MR
p439
I24
sVCU MR
p440
I6
sVSL TR
p441
I11
sVSL TL
p442
I40
sVSL TM
p443
I9
sVCU ML
p444
I3
sVCU MM
p445
I11
ssS'CU BM'
p446
(dp447
VFF BM
p448
I12
sVFF BL
p449
I22
sVCU TR
p450
I5
sVCU TM
p451
I9
sVCU TL
p452
I10
sVFF BR
p453
I16
sVSL BR
p454
I2
sVSL BL
p455
I6
sVSL BM
p456
I1
sVFF ML
p457
I10
sVFF MM
p458
I5
sVFF TM
p459
I5
sVFF TL
p460
I19
sVCU BR
p461
I5
sVCU BM
p462
I8
sVCU BL
p463
I2
sVFF TR
p464
I8
sVSL MM
p465
I2
sVSL ML
p466
I6
sVFF MR
p467
I7
sVSL TR
p468
I3
sVSL TL
p469
I20
sVSL TM
p470
I1
sVCU ML
p471
I2
sVCU MM
p472
I2
ssS'CU BL'
p473
(dp474
VFF BM
p475
I8
sVFF BL
p476
I17
sVCU TR
p477
I3
sVCU TM
p478
I2
sVCU TL
p479
I11
sVFF BR
p480
I5
sVSL BR
p481
I3
sVSL BL
p482
I4
sVSL BM
p483
I2
sVFF ML
p484
I9
sVFF MM
p485
I4
sVSL MR
p486
I2
sVFF TM
p487
I1
sVFF TL
p488
I10
sVCU BM
p489
I4
sVCU BL
p490
I1
sVFF TR
p491
I8
sVSL MM
p492
I1
sVSL ML
p493
I3
sVFF MR
p494
I3
sVCU MR
p495
I1
sVSL TR
p496
I3
sVSL TL
p497
I12
sVSL TM
p498
I2
sVCU ML
p499
I5
ssS'FF TR'
p500
(dp501
VFF BM
p502
I39
sVFF BL
p503
I47
sVCU TR
p504
I23
sVCU TM
p505
I21
sVCU TL
p506
I38
sVFF BR
p507
I66
sVSL BR
p508
I11
sVSL BL
p509
I8
sVSL BM
p510
I15
sVFF ML
p511
I52
sVFF MM
p512
I35
sVSL MR
p513
I7
sVFF TM
p514
I38
sVFF TL
p515
I86
sVCU BR
p516
I17
sVCU BM
p517
I9
sVCU BL
p518
I4
sVFF TR
p519
I51
sVSL MM
p520
I4
sVSL ML
p521
I20
sVFF MR
p522
I47
sVCU MR
p523
I8
sVSL TR
p524
I25
sVSL TL
p525
I78
sVSL TM
p526
I26
sVCU ML
p527
I6
sVCU MM
p528
I6
ssS'SL MM'
p529
(dp530
VFF BM
p531
I12
sVFF BL
p532
I9
sVCU TR
p533
I8
sVCU TM
p534
I11
sVCU TL
p535
I6
sVFF BR
p536
I13
sVSL BR
p537
I5
sVSL BL
p538
I8
sVSL BM
p539
I1
sVFF ML
p540
I11
sVFF MM
p541
I5
sVSL MR
p542
I1
sVFF TM
p543
I1
sVFF TL
p544
I6
sVCU BR
p545
I8
sVCU BM
p546
I4
sVCU BL
p547
I7
sVFF TR
p548
I6
sVSL MM
p549
I2
sVSL ML
p550
I6
sVFF MR
p551
I3
sVCU MR
p552
I3
sVSL TR
p553
I4
sVSL TL
p554
I20
sVSL TM
p555
I7
sVCU ML
p556
I2
sVCU MM
p557
I3
ssS'SL ML'
p558
(dp559
VFF BM
p560
I17
sVFF BL
p561
I33
sVCU TR
p562
I14
sVCU TM
p563
I9
sVCU TL
p564
I17
sVFF BR
p565
I23
sVSL BR
p566
I4
sVSL BL
p567
I7
sVSL BM
p568
I6
sVFF ML
p569
I22
sVFF MM
p570
I5
sVSL MR
p571
I4
sVFF TM
p572
I6
sVFF TL
p573
I21
sVCU BR
p574
I14
sVCU BM
p575
I6
sVCU BL
p576
I3
sVFF TR
p577
I21
sVSL MM
p578
I7
sVSL ML
p579
I15
sVFF MR
p580
I21
sVCU MR
p581
I8
sVSL TR
p582
I5
sVSL TL
p583
I40
sVSL TM
p584
I14
sVCU ML
p585
I8
sVCU MM
p586
I5
ssS'FF MR'
p587
(dp588
VFF BM
p589
I51
sVFF BL
p590
I75
sVCU TR
p591
I25
sVCU TM
p592
I34
sVCU TL
p593
I35
sVFF BR
p594
I95
sVSL BR
p595
I16
sVSL BL
p596
I15
sVSL BM
p597
I14
sVFF ML
p598
I54
sVFF MM
p599
I20
sVSL MR
p600
I7
sVFF TM
p601
I28
sVFF TL
p602
I55
sVCU BR
p603
I24
sVCU BM
p604
I14
sVCU BL
p605
I6
sVFF TR
p606
I45
sVSL MM
p607
I11
sVSL ML
p608
I7
sVFF MR
p609
I59
sVCU MR
p610
I11
sVSL TR
p611
I27
sVSL TL
p612
I74
sVSL TM
p613
I31
sVCU ML
p614
I7
sVCU MM
p615
I6
ssS'CU MR'
p616
(dp617
VFF BM
p618
I7
sVFF BL
p619
I11
sVCU TR
p620
I10
sVCU TM
p621
I4
sVCU TL
p622
I6
sVFF BR
p623
I4
sVSL BR
p624
I2
sVSL BL
p625
I1
sVSL BM
p626
I1
sVFF ML
p627
I6
sVFF MM
p628
I4
sVFF TM
p629
I3
sVFF TL
p630
I6
sVCU BR
p631
I2
sVCU BM
p632
I2
sVFF TR
p633
I7
sVSL ML
p634
I1
sVFF MR
p635
I6
sVCU MR
p636
I2
sVSL TL
p637
I20
sVSL TM
p638
I4
sVCU ML
p639
I1
ssS'SL TR'
p640
(dp641
VFF BM
p642
I10
sVFF BL
p643
I36
sVCU TR
p644
I8
sVCU TM
p645
I10
sVCU TL
p646
I15
sVFF BR
p647
I21
sVSL BR
p648
I12
sVSL BL
p649
I3
sVSL BM
p650
I3
sVFF ML
p651
I16
sVFF MM
p652
I10
sVSL MR
p653
I10
sVFF TM
p654
I5
sVFF TL
p655
I28
sVCU BR
p656
I2
sVCU BM
p657
I6
sVCU BL
p658
I1
sVFF TR
p659
I15
sVSL MM
p660
I4
sVSL ML
p661
I5
sVFF MR
p662
I12
sVCU MR
p663
I2
sVSL TR
p664
I16
sVSL TL
p665
I29
sVSL TM
p666
I12
sVCU ML
p667
I5
sVCU MM
p668
I3
ssS'SL TL'
p669
(dp670
VFF BM
p671
I68
sVFF BL
p672
I123
sVCU TR
p673
I36
sVCU TM
p674
I38
sVCU TL
p675
I57
sVFF BR
p676
I88
sVSL BR
p677
I31
sVSL BL
p678
I45
sVSL BM
p679
I34
sVFF ML
p680
I89
sVFF MM
p681
I42
sVSL MR
p682
I14
sVFF TM
p683
I37
sVFF TL
p684
I113
sVCU BR
p685
I32
sVCU BM
p686
I12
sVCU BL
p687
I10
sVFF TR
p688
I73
sVSL MM
p689
I18
sVSL ML
p690
I53
sVFF MR
p691
I57
sVCU MR
p692
I16
sVSL TR
p693
I40
sVSL TL
p694
I209
sVSL TM
p695
I67
sVCU ML
p696
I6
sVCU MM
p697
I9
ssS'SL TM'
p698
(dp699
VFF BM
p700
I25
sVFF BL
p701
I31
sVCU TR
p702
I10
sVCU TM
p703
I17
sVCU TL
p704
I14
sVFF BR
p705
I29
sVSL BR
p706
I13
sVSL BL
p707
I8
sVSL BM
p708
I11
sVFF ML
p709
I29
sVFF MM
p710
I17
sVSL MR
p711
I6
sVFF TM
p712
I16
sVFF TL
p713
I34
sVCU BR
p714
I10
sVCU BM
p715
I2
sVCU BL
p716
I2
sVFF TR
p717
I22
sVSL MM
p718
I10
sVSL ML
p719
I12
sVFF MR
p720
I18
sVCU MR
p721
I8
sVSL TR
p722
I13
sVSL TL
p723
I62
sVSL TM
p724
I24
sVCU ML
p725
I2
sVCU MM
p726
I7
ssS'CU ML'
p727
(dp728
VFF BM
p729
I9
sVFF BL
p730
I17
sVCU TR
p731
I3
sVCU TM
p732
I3
sVCU TL
p733
I11
sVFF BR
p734
I5
sVSL BL
p735
I4
sVSL BM
p736
I3
sVFF ML
p737
I10
sVFF MM
p738
I2
sVSL MR
p739
I1
sVFF TM
p740
I5
sVFF TL
p741
I9
sVCU BR
p742
I1
sVCU BM
p743
I2
sVCU BL
p744
I3
sVFF TR
p745
I7
sVSL MM
p746
I2
sVSL ML
p747
I4
sVFF MR
p748
I5
sVCU MR
p749
I2
sVSL TL
p750
I13
sVSL TM
p751
I3
sVCU ML
p752
I2
sVCU MM
p753
I2
ssS'CU MM'
p754
(dp755
VFF BM
p756
I3
sVFF BL
p757
I12
sVCU TR
p758
I3
sVCU TM
p759
I5
sVCU TL
p760
I5
sVFF BR
p761
I5
sVSL BR
p762
I2
sVSL BL
p763
I4
sVFF ML
p764
I7
sVSL MR
p765
I1
sVFF TM
p766
I3
sVFF TL
p767
I8
sVCU BR
p768
I2
sVCU BM
p769
I2
sVFF TR
p770
I9
sVSL MM
p771
I3
sVSL ML
p772
I2
sVFF MR
p773
I5
sVCU MR
p774
I1
sVSL TR
p775
I2
sVSL TL
p776
I9
sVSL TM
p777
I1
sVCU ML
p778
I2
sVCU MM
p779
I1
sss.